target datalayout = "e-m:e-p270:32:32-p271:32:32-p272:64:64-i64:64-i128:128-f80:128-n8:16:32:64-S128"
target triple = "x86_64-pc-linux-gnu"

; Function Attrs: nounwind uwtable
define internal void @premultiply8(ptr noundef %0, ptr noundef %1, ptr noundef %2, i64 noundef %3, i64 noundef %4, i64 noundef %5, i32 noundef %6, i32 noundef %7, i32 noundef %8, i32 noundef %9, i32 noundef %10) #1 {
  %12 = alloca ptr, align 8
  %13 = alloca ptr, align 8
  %14 = alloca ptr, align 8
  %15 = alloca i64, align 8
  %16 = alloca i64, align 8
  %17 = alloca i64, align 8
  %18 = alloca i32, align 4
  %19 = alloca i32, align 4
  %20 = alloca i32, align 4
  %21 = alloca i32, align 4
  %22 = alloca i32, align 4
  %23 = alloca i32, align 4
  %24 = alloca i32, align 4
  store ptr %0, ptr %12, align 8, !tbaa !91
  store ptr %1, ptr %13, align 8, !tbaa !91
  store ptr %2, ptr %14, align 8, !tbaa !91
  store i64 %3, ptr %15, align 8, !tbaa !50
  store i64 %4, ptr %16, align 8, !tbaa !50
  store i64 %5, ptr %17, align 8, !tbaa !50
  store i32 %6, ptr %18, align 4, !tbaa !37
  store i32 %7, ptr %19, align 4, !tbaa !37
  store i32 %8, ptr %20, align 4, !tbaa !37
  store i32 %9, ptr %21, align 4, !tbaa !37
  store i32 %10, ptr %22, align 4, !tbaa !37
  call void @llvm.lifetime.start.p0(i64 4, ptr %23) #11
  call void @llvm.lifetime.start.p0(i64 4, ptr %24) #11
  store i32 0, ptr %24, align 4, !tbaa !37
  br label %25

25:                                               ; preds = %77, %11
  %26 = load i32, ptr %24, align 4, !tbaa !37
  %27 = load i32, ptr %19, align 4, !tbaa !37
  %28 = icmp slt i32 %26, %27
  br i1 %28, label %29, label %80

29:                                               ; preds = %25
  store i32 0, ptr %23, align 4, !tbaa !37
  br label %30

30:                                               ; preds = %64, %29
  %31 = load i32, ptr %23, align 4, !tbaa !37
  %32 = load i32, ptr %18, align 4, !tbaa !37
  %33 = icmp slt i32 %31, %32
  br i1 %33, label %34, label %67

34:                                               ; preds = %30
  %35 = load ptr, ptr %12, align 8, !tbaa !91
  %36 = load i32, ptr %23, align 4, !tbaa !37
  %37 = sext i32 %36 to i64
  %38 = getelementptr inbounds i8, ptr %35, i64 %37
  %39 = load i8, ptr %38, align 1, !tbaa !92
  %40 = zext i8 %39 to i32
  %41 = load ptr, ptr %13, align 8, !tbaa !91
  %42 = load i32, ptr %23, align 4, !tbaa !37
  %43 = sext i32 %42 to i64
  %44 = getelementptr inbounds i8, ptr %41, i64 %43
  %45 = load i8, ptr %44, align 1, !tbaa !92
  %46 = zext i8 %45 to i32
  %47 = ashr i32 %46, 1
  %48 = and i32 %47, 1
  %49 = load ptr, ptr %13, align 8, !tbaa !91
  %50 = load i32, ptr %23, align 4, !tbaa !37
  %51 = sext i32 %50 to i64
  %52 = getelementptr inbounds i8, ptr %49, i64 %51
  %53 = load i8, ptr %52, align 1, !tbaa !92
  %54 = zext i8 %53 to i32
  %55 = add nsw i32 %48, %54
  %56 = mul nsw i32 %40, %55
  %57 = add nsw i32 %56, 128
  %58 = ashr i32 %57, 8
  %59 = trunc i32 %58 to i8
  %60 = load ptr, ptr %14, align 8, !tbaa !91
  %61 = load i32, ptr %23, align 4, !tbaa !37
  %62 = sext i32 %61 to i64
  %63 = getelementptr inbounds i8, ptr %60, i64 %62
  store i8 %59, ptr %63, align 1, !tbaa !92
  br label %64

64:                                               ; preds = %34
  %65 = load i32, ptr %23, align 4, !tbaa !37
  %66 = add nsw i32 %65, 1
  store i32 %66, ptr %23, align 4, !tbaa !37
  br label %30, !llvm.loop !117

67:                                               ; preds = %30
  %68 = load i64, ptr %17, align 8, !tbaa !50
  %69 = load ptr, ptr %14, align 8, !tbaa !91
  %70 = getelementptr inbounds i8, ptr %69, i64 %68
  store ptr %70, ptr %14, align 8, !tbaa !91
  %71 = load i64, ptr %15, align 8, !tbaa !50
  %72 = load ptr, ptr %12, align 8, !tbaa !91
  %73 = getelementptr inbounds i8, ptr %72, i64 %71
  store ptr %73, ptr %12, align 8, !tbaa !91
  %74 = load i64, ptr %16, align 8, !tbaa !50
  %75 = load ptr, ptr %13, align 8, !tbaa !91
  %76 = getelementptr inbounds i8, ptr %75, i64 %74
  store ptr %76, ptr %13, align 8, !tbaa !91
  br label %77

77:                                               ; preds = %67
  %78 = load i32, ptr %24, align 4, !tbaa !37
  %79 = add nsw i32 %78, 1
  store i32 %79, ptr %24, align 4, !tbaa !37
  br label %25, !llvm.loop !118

80:                                               ; preds = %25
  call void @llvm.lifetime.end.p0(i64 4, ptr %24) #11
  call void @llvm.lifetime.end.p0(i64 4, ptr %23) #11
  ret void
}